; Function Attrs: mustprogress nounwind uwtable
define hidden void @_ZN6hermes3hbc25BytecodeFunctionGenerator12setJumpTableEOSt6vectorIjSaIjEE(ptr noundef nonnull align 8 captures(none) dereferenceable(200) initializes((184, 200)) %this, ptr noundef nonnull align 8 captures(none) dereferenceable(24) %jumpTable) local_unnamed_addr #0 align 2 {
entry:
  %jumpTable_ = getelementptr inbounds nuw i8, ptr %this, i64 176
  %0 = load ptr, ptr %jumpTable_, align 8
  %_M_finish.i.i.i.i = getelementptr inbounds nuw i8, ptr %this, i64 184
  %_M_end_of_storage.i.i.i.i = getelementptr inbounds nuw i8, ptr %this, i64 192
  %1 = load ptr, ptr %jumpTable, align 8
  store ptr %1, ptr %jumpTable_, align 8
  %_M_finish.i2.i.i.i = getelementptr inbounds nuw i8, ptr %jumpTable, i64 8
  %2 = load ptr, ptr %_M_finish.i2.i.i.i, align 8
  store ptr %2, ptr %_M_finish.i.i.i.i, align 8
  %_M_end_of_storage.i4.i.i.i = getelementptr inbounds nuw i8, ptr %jumpTable, i64 16
  %3 = load ptr, ptr %_M_end_of_storage.i4.i.i.i, align 8
  store ptr %3, ptr %_M_end_of_storage.i.i.i.i, align 8
  %tobool.not.i.i.i.i.i = icmp eq ptr %0, null
  tail call void @llvm.memset.p0.i64(ptr noundef nonnull align 8 dereferenceable(24) %jumpTable, i8 0, i64 24, i1 false)
  br i1 %tobool.not.i.i.i.i.i, label %_ZNSt6vectorIjSaIjEEaSEOS1_.exit, label %if.then.i.i.i.i.i

if.then.i.i.i.i.i:                                ; preds = %entry
  tail call void @_ZdlPv(ptr noundef nonnull %0) #19
  br label %_ZNSt6vectorIjSaIjEEaSEOS1_.exit

_ZNSt6vectorIjSaIjEEaSEOS1_.exit:                 ; preds = %entry, %if.then.i.i.i.i.i
  ret void
}